target datalayout = "e-m:e-p270:32:32-p271:32:32-p272:64:64-i64:64-i128:128-f80:128-n8:16:32:64-S128"
target triple = "x86_64-pc-linux-gnu"

%struct._scsi_task_data = type { i32, ptr, ptr }
%struct._itlq_nexus_t = type { i32, i32, i16, i16, i16, i16, i32, i32, i32, %struct.nstime_t, %struct.nstime_t, ptr }
%struct.nstime_t = type { i64, i32 }
%struct._scsi_osd_extra_data_t = type { i16, i8, %union.anon, i32, i8 }
%union.anon = type { %struct.anon.0 }
%struct.anon.0 = type { i32, i32, i32, i32, i32, i32 }

@hf_scsi_osd_getsetattrib = internal global i32 0, align 4
@hf_scsi_osd_timestamps_control = internal global i32 0, align 4
@hf_scsi_osd_ricv = internal global i32 0, align 4
@hf_scsi_osd_request_nonce = internal global i32 0, align 4
@hf_scsi_osd_diicvo = internal global i32 0, align 4
@hf_scsi_osd_doicvo = internal global i32 0, align 4
@hf_scsi_osd_partition_id = internal global i32 0, align 4
@hf_scsi_osd_collection_fcr = internal global i32 0, align 4
@hf_scsi_osd_collection_object_id = internal global i32 0, align 4
@hf_scsi_osd_flush_collection_scope = internal global i32 0, align 4
@ett_osd_security_parameters = internal global i32 0, align 4
@.str.294 = private unnamed_addr constant [20 x i8] c"Security Parameters\00", align 1

; Function Attrs: null_pointer_is_valid sspstrong uwtable
define internal void @dissect_osd_attribute_data_in(ptr noundef %0, ptr noundef %1, i32 noundef %2, ptr noundef %3, ptr noundef %4, ptr noundef %5) #3 {
  %7 = alloca ptr, align 8
  %8 = alloca ptr, align 8
  %9 = alloca i32, align 4
  %10 = alloca ptr, align 8
  %11 = alloca ptr, align 8
  %12 = alloca ptr, align 8
  %13 = alloca i8, align 1
  %14 = alloca ptr, align 8
  %15 = alloca i32, align 4
  store ptr %0, ptr %7, align 8
  store ptr %1, ptr %8, align 8
  store i32 %2, ptr %9, align 4
  store ptr %3, ptr %10, align 8
  store ptr %4, ptr %11, align 8
  store ptr %5, ptr %12, align 8
  call void @llvm.lifetime.start.p0(i64 1, ptr %13) #6
  store i8 0, ptr %13, align 1
  call void @llvm.lifetime.start.p0(i64 8, ptr %14) #6
  store ptr null, ptr %14, align 8
  %16 = load ptr, ptr %11, align 8
  %17 = icmp ne ptr %16, null
  br i1 %17, label %18, label %39

18:                                               ; preds = %6
  %19 = load ptr, ptr %11, align 8
  %20 = getelementptr inbounds nuw %struct._scsi_task_data, ptr %19, i32 0, i32 1
  %21 = load ptr, ptr %20, align 8
  %22 = icmp ne ptr %21, null
  br i1 %22, label %23, label %39

23:                                               ; preds = %18
  %24 = load ptr, ptr %11, align 8
  %25 = getelementptr inbounds nuw %struct._scsi_task_data, ptr %24, i32 0, i32 1
  %26 = load ptr, ptr %25, align 8
  %27 = getelementptr inbounds nuw %struct._itlq_nexus_t, ptr %26, i32 0, i32 11
  %28 = load ptr, ptr %27, align 8
  %29 = icmp ne ptr %28, null
  br i1 %29, label %30, label %39

30:                                               ; preds = %23
  %31 = load ptr, ptr %11, align 8
  %32 = getelementptr inbounds nuw %struct._scsi_task_data, ptr %31, i32 0, i32 1
  %33 = load ptr, ptr %32, align 8
  %34 = getelementptr inbounds nuw %struct._itlq_nexus_t, ptr %33, i32 0, i32 11
  %35 = load ptr, ptr %34, align 8
  store ptr %35, ptr %14, align 8
  %36 = load ptr, ptr %14, align 8
  %37 = getelementptr inbounds nuw %struct._scsi_osd_extra_data_t, ptr %36, i32 0, i32 1
  %38 = load i8, ptr %37, align 2
  store i8 %38, ptr %13, align 1
  br label %40

39:                                               ; preds = %23, %18, %6
  store i32 1, ptr %15, align 4
  br label %64

40:                                               ; preds = %30
  %41 = load i8, ptr %13, align 1
  %42 = zext i8 %41 to i32
  switch i32 %42, label %63 [
    i32 2, label %63
    i32 3, label %43
  ]

43:                                               ; preds = %40
  %44 = load ptr, ptr %14, align 8
  %45 = getelementptr inbounds nuw %struct._scsi_osd_extra_data_t, ptr %44, i32 0, i32 2
  %46 = getelementptr inbounds nuw %struct.anon.0, ptr %45, i32 0, i32 2
  %47 = load i32, ptr %46, align 4
  %48 = icmp ne i32 %47, 0
  br i1 %48, label %49, label %62

49:                                               ; preds = %43
  %50 = load ptr, ptr %7, align 8
  %51 = load ptr, ptr %8, align 8
  %52 = load ptr, ptr %14, align 8
  %53 = getelementptr inbounds nuw %struct._scsi_osd_extra_data_t, ptr %52, i32 0, i32 2
  %54 = getelementptr inbounds nuw %struct.anon.0, ptr %53, i32 0, i32 3
  %55 = load i32, ptr %54, align 4
  %56 = load ptr, ptr %10, align 8
  %57 = load ptr, ptr %12, align 8
  %58 = load ptr, ptr %14, align 8
  %59 = getelementptr inbounds nuw %struct._scsi_osd_extra_data_t, ptr %58, i32 0, i32 4
  %60 = load i8, ptr %59, align 4, !range !9, !noundef !10
  %61 = trunc i8 %60 to i1
  call void @dissect_osd_attributes_list(ptr noundef %50, ptr noundef %51, i32 noundef %55, ptr noundef %56, ptr noundef %57, i1 noundef zeroext %61)
  br label %62

62:                                               ; preds = %49, %43
  br label %63

63:                                               ; preds = %40, %62, %40
  store i32 0, ptr %15, align 4
  br label %64

64:                                               ; preds = %63, %39
  call void @llvm.lifetime.end.p0(i64 8, ptr %14) #6
  call void @llvm.lifetime.end.p0(i64 1, ptr %13) #6
  %65 = load i32, ptr %15, align 4
  switch i32 %65, label %67 [
    i32 0, label %66
    i32 1, label %66
  ]

66:                                               ; preds = %64, %64
  ret void

67:                                               ; preds = %64
  unreachable
}

; Function Attrs: null_pointer_is_valid sspstrong uwtable
define internal i32 @dissect_osd_security_parameters(ptr noundef %0, i32 noundef %1, ptr noundef %2) #3 {
  %4 = alloca ptr, align 8
  %5 = alloca i32, align 4
  %6 = alloca ptr, align 8
  %7 = alloca ptr, align 8
  store ptr %0, ptr %4, align 8
  store i32 %1, ptr %5, align 4
  store ptr %2, ptr %6, align 8
  call void @llvm.lifetime.start.p0(i64 8, ptr %7) #6
  %8 = load ptr, ptr %6, align 8
  %9 = load ptr, ptr %4, align 8
  %10 = load i32, ptr %5, align 4
  %11 = load i32, ptr @ett_osd_security_parameters, align 4
  %12 = call ptr @proto_tree_add_subtree(ptr noundef %8, ptr noundef %9, i32 noundef %10, i32 noundef 40, i32 noundef %11, ptr noundef null, ptr noundef @.str.294)
  store ptr %12, ptr %7, align 8
  %13 = load ptr, ptr %7, align 8
  %14 = load i32, ptr @hf_scsi_osd_ricv, align 4
  %15 = load ptr, ptr %4, align 8
  %16 = load i32, ptr %5, align 4
  %17 = call ptr @proto_tree_add_item(ptr noundef %13, i32 noundef %14, ptr noundef %15, i32 noundef %16, i32 noundef 20, i32 noundef 0)
  %18 = load i32, ptr %5, align 4
  %19 = add i32 %18, 20
  store i32 %19, ptr %5, align 4
  %20 = load ptr, ptr %7, align 8
  %21 = load i32, ptr @hf_scsi_osd_request_nonce, align 4
  %22 = load ptr, ptr %4, align 8
  %23 = load i32, ptr %5, align 4
  %24 = call ptr @proto_tree_add_item(ptr noundef %20, i32 noundef %21, ptr noundef %22, i32 noundef %23, i32 noundef 12, i32 noundef 0)
  %25 = load i32, ptr %5, align 4
  %26 = add i32 %25, 12
  store i32 %26, ptr %5, align 4
  %27 = load ptr, ptr %7, align 8
  %28 = load i32, ptr @hf_scsi_osd_diicvo, align 4
  %29 = load ptr, ptr %4, align 8
  %30 = load i32, ptr %5, align 4
  %31 = call ptr @proto_tree_add_item(ptr noundef %27, i32 noundef %28, ptr noundef %29, i32 noundef %30, i32 noundef 4, i32 noundef 0)
  %32 = load i32, ptr %5, align 4
  %33 = add i32 %32, 4
  store i32 %33, ptr %5, align 4
  %34 = load ptr, ptr %7, align 8
  %35 = load i32, ptr @hf_scsi_osd_doicvo, align 4
  %36 = load ptr, ptr %4, align 8
  %37 = load i32, ptr %5, align 4
  %38 = call ptr @proto_tree_add_item(ptr noundef %34, i32 noundef %35, ptr noundef %36, i32 noundef %37, i32 noundef 4, i32 noundef 0)
  %39 = load i32, ptr %5, align 4
  %40 = add i32 %39, 4
  store i32 %40, ptr %5, align 4
  %41 = load i32, ptr %5, align 4
  call void @llvm.lifetime.end.p0(i64 8, ptr %7) #6
  ret i32 %41
}

; Function Attrs: null_pointer_is_valid sspstrong uwtable
define internal ptr @dissect_osd_collection_object_id(ptr noundef %0, i32 noundef %1, ptr noundef %2, i32 noundef %3) #3 {
  %5 = alloca ptr, align 8
  %6 = alloca i32, align 4
  %7 = alloca ptr, align 8
  %8 = alloca i32, align 4
  %9 = alloca ptr, align 8
  store ptr %0, ptr %5, align 8
  store i32 %1, ptr %6, align 4
  store ptr %2, ptr %7, align 8
  store i32 %3, ptr %8, align 4
  call void @llvm.lifetime.start.p0(i64 8, ptr %9) #6
  %10 = load ptr, ptr %7, align 8
  %11 = load i32, ptr %8, align 4
  %12 = load ptr, ptr %5, align 8
  %13 = load i32, ptr %6, align 4
  %14 = call ptr @proto_tree_add_item(ptr noundef %10, i32 noundef %11, ptr noundef %12, i32 noundef %13, i32 noundef 8, i32 noundef 0)
  store ptr %14, ptr %9, align 8
  %15 = load ptr, ptr %9, align 8
  call void @llvm.lifetime.end.p0(i64 8, ptr %9) #6
  ret ptr %15
}

; Function Attrs: null_pointer_is_valid sspstrong uwtable
define internal void @dissect_osd_timestamps_control(ptr noundef %0, i32 noundef %1, ptr noundef %2) #3 {
  %4 = alloca ptr, align 8
  %5 = alloca i32, align 4
  %6 = alloca ptr, align 8
  store ptr %0, ptr %4, align 8
  store i32 %1, ptr %5, align 4
  store ptr %2, ptr %6, align 8
  %7 = load ptr, ptr %6, align 8
  %8 = load i32, ptr @hf_scsi_osd_timestamps_control, align 4
  %9 = load ptr, ptr %4, align 8
  %10 = load i32, ptr %5, align 4
  %11 = call ptr @proto_tree_add_item(ptr noundef %7, i32 noundef %8, ptr noundef %9, i32 noundef %10, i32 noundef 1, i32 noundef 0)
  ret void
}

; Function Attrs: null_pointer_is_valid sspstrong uwtable
define internal void @dissect_osd_collection_fcr(ptr noundef %0, i32 noundef %1, ptr noundef %2) #3 {
  %4 = alloca ptr, align 8
  %5 = alloca i32, align 4
  %6 = alloca ptr, align 8
  store ptr %0, ptr %4, align 8
  store i32 %1, ptr %5, align 4
  store ptr %2, ptr %6, align 8
  %7 = load ptr, ptr %6, align 8
  %8 = load i32, ptr @hf_scsi_osd_collection_fcr, align 4
  %9 = load ptr, ptr %4, align 8
  %10 = load i32, ptr %5, align 4
  %11 = call ptr @proto_tree_add_item(ptr noundef %7, i32 noundef %8, ptr noundef %9, i32 noundef %10, i32 noundef 1, i32 noundef 0)
  ret void
}

; Function Attrs: null_pointer_is_valid sspstrong uwtable
define internal void @dissect_osd_getsetattrib(ptr noundef %0, i32 noundef %1, ptr noundef %2, ptr noundef %3) #3 {
  %5 = alloca ptr, align 8
  %6 = alloca i32, align 4
  %7 = alloca ptr, align 8
  %8 = alloca ptr, align 8
  %9 = alloca ptr, align 8
  store ptr %0, ptr %5, align 8
  store i32 %1, ptr %6, align 4
  store ptr %2, ptr %7, align 8
  store ptr %3, ptr %8, align 8
  %10 = load ptr, ptr %8, align 8
  %11 = icmp ne ptr %10, null
  br i1 %11, label %12, label %39

12:                                               ; preds = %4
  %13 = load ptr, ptr %8, align 8
  %14 = getelementptr inbounds nuw %struct._scsi_task_data, ptr %13, i32 0, i32 1
  %15 = load ptr, ptr %14, align 8
  %16 = icmp ne ptr %15, null
  br i1 %16, label %17, label %39

17:                                               ; preds = %12
  %18 = load ptr, ptr %8, align 8
  %19 = getelementptr inbounds nuw %struct._scsi_task_data, ptr %18, i32 0, i32 1
  %20 = load ptr, ptr %19, align 8
  %21 = getelementptr inbounds nuw %struct._itlq_nexus_t, ptr %20, i32 0, i32 11
  %22 = load ptr, ptr %21, align 8
  %23 = icmp ne ptr %22, null
  br i1 %23, label %24, label %39

24:                                               ; preds = %17
  call void @llvm.lifetime.start.p0(i64 8, ptr %9) #6
  %25 = load ptr, ptr %8, align 8
  %26 = getelementptr inbounds nuw %struct._scsi_task_data, ptr %25, i32 0, i32 1
  %27 = load ptr, ptr %26, align 8
  %28 = getelementptr inbounds nuw %struct._itlq_nexus_t, ptr %27, i32 0, i32 11
  %29 = load ptr, ptr %28, align 8
  store ptr %29, ptr %9, align 8
  %30 = load ptr, ptr %5, align 8
  %31 = load i32, ptr %6, align 4
  %32 = call zeroext i8 @tvb_get_uint8(ptr noundef %30, i32 noundef %31)
  %33 = zext i8 %32 to i32
  %34 = ashr i32 %33, 4
  %35 = and i32 %34, 3
  %36 = trunc i32 %35 to i8
  %37 = load ptr, ptr %9, align 8
  %38 = getelementptr inbounds nuw %struct._scsi_osd_extra_data_t, ptr %37, i32 0, i32 1
  store i8 %36, ptr %38, align 2
  call void @llvm.lifetime.end.p0(i64 8, ptr %9) #6
  br label %39

39:                                               ; preds = %24, %17, %12, %4
  %40 = load ptr, ptr %7, align 8
  %41 = load i32, ptr @hf_scsi_osd_getsetattrib, align 4
  %42 = load ptr, ptr %5, align 8
  %43 = load i32, ptr %6, align 4
  %44 = call ptr @proto_tree_add_item(ptr noundef %40, i32 noundef %41, ptr noundef %42, i32 noundef %43, i32 noundef 1, i32 noundef 0)
  ret void
}

; Function Attrs: null_pointer_is_valid sspstrong uwtable
define internal i32 @dissect_osd_flush_collection_scope(ptr noundef %0, i32 noundef %1, ptr noundef %2) #3 {
  %4 = alloca ptr, align 8
  %5 = alloca i32, align 4
  %6 = alloca ptr, align 8
  store ptr %0, ptr %4, align 8
  store i32 %1, ptr %5, align 4
  store ptr %2, ptr %6, align 8
  %7 = load ptr, ptr %6, align 8
  %8 = load i32, ptr @hf_scsi_osd_flush_collection_scope, align 4
  %9 = load ptr, ptr %4, align 8
  %10 = load i32, ptr %5, align 4
  %11 = call ptr @proto_tree_add_item(ptr noundef %7, i32 noundef %8, ptr noundef %9, i32 noundef %10, i32 noundef 1, i32 noundef 0)
  %12 = load i32, ptr %5, align 4
  %13 = add i32 %12, 1
  store i32 %13, ptr %5, align 4
  %14 = load i32, ptr %5, align 4
  ret i32 %14
}

; Function Attrs: null_pointer_is_valid sspstrong uwtable
define internal void @dissect_osd_flush_collection(ptr noundef %0, ptr noundef %1, ptr noundef %2, i32 noundef %3, i1 noundef zeroext %4, i1 noundef zeroext %5, i32 noundef %6, ptr noundef %7, ptr noundef %8, ptr noundef %9) #3 {
  %11 = alloca ptr, align 8
  %12 = alloca ptr, align 8
  %13 = alloca ptr, align 8
  %14 = alloca i32, align 4
  %15 = alloca i8, align 1
  %16 = alloca i8, align 1
  %17 = alloca i32, align 4
  %18 = alloca ptr, align 8
  %19 = alloca ptr, align 8
  %20 = alloca ptr, align 8
  store ptr %0, ptr %11, align 8
  store ptr %1, ptr %12, align 8
  store ptr %2, ptr %13, align 8
  store i32 %3, ptr %14, align 4
  %21 = zext i1 %4 to i8
  store i8 %21, ptr %15, align 1
  %22 = zext i1 %5 to i8
  store i8 %22, ptr %16, align 1
  store i32 %6, ptr %17, align 4
  store ptr %7, ptr %18, align 8
  store ptr %8, ptr %19, align 8
  store ptr %9, ptr %20, align 8
  %23 = load i8, ptr %15, align 1, !range !9, !noundef !10
  %24 = trunc i8 %23 to i1
  br i1 %24, label %25, label %88

25:                                               ; preds = %10
  %26 = load i8, ptr %16, align 1, !range !9, !noundef !10
  %27 = trunc i8 %26 to i1
  br i1 %27, label %28, label %88

28:                                               ; preds = %25
  %29 = load ptr, ptr %11, align 8
  %30 = load i32, ptr %14, align 4
  %31 = load ptr, ptr %13, align 8
  %32 = call i32 @dissect_osd_flush_collection_scope(ptr noundef %29, i32 noundef %30, ptr noundef %31)
  %33 = load i32, ptr %14, align 4
  %34 = add i32 %33, 1
  store i32 %34, ptr %14, align 4
  %35 = load ptr, ptr %11, align 8
  %36 = load i32, ptr %14, align 4
  %37 = load ptr, ptr %13, align 8
  %38 = load ptr, ptr %18, align 8
  call void @dissect_osd_getsetattrib(ptr noundef %35, i32 noundef %36, ptr noundef %37, ptr noundef %38)
  %39 = load ptr, ptr %11, align 8
  %40 = load i32, ptr %14, align 4
  %41 = load ptr, ptr %13, align 8
  call void @dissect_osd_collection_fcr(ptr noundef %39, i32 noundef %40, ptr noundef %41)
  %42 = load i32, ptr %14, align 4
  %43 = add i32 %42, 1
  store i32 %43, ptr %14, align 4
  %44 = load ptr, ptr %11, align 8
  %45 = load i32, ptr %14, align 4
  %46 = load ptr, ptr %13, align 8
  call void @dissect_osd_timestamps_control(ptr noundef %44, i32 noundef %45, ptr noundef %46)
  %47 = load i32, ptr %14, align 4
  %48 = add i32 %47, 1
  store i32 %48, ptr %14, align 4
  %49 = load i32, ptr %14, align 4
  %50 = add i32 %49, 3
  store i32 %50, ptr %14, align 4
  %51 = load ptr, ptr %12, align 8
  %52 = load ptr, ptr %11, align 8
  %53 = load i32, ptr %14, align 4
  %54 = load ptr, ptr %13, align 8
  %55 = load i32, ptr @hf_scsi_osd_partition_id, align 4
  %56 = load ptr, ptr %20, align 8
  %57 = call ptr @dissect_osd_partition_id(ptr noundef %51, ptr noundef %52, i32 noundef %53, ptr noundef %54, i32 noundef %55, ptr noundef %56, i1 noundef zeroext false, i1 noundef zeroext false)
  %58 = load i32, ptr %14, align 4
  %59 = add i32 %58, 8
  store i32 %59, ptr %14, align 4
  %60 = load ptr, ptr %11, align 8
  %61 = load i32, ptr %14, align 4
  %62 = load ptr, ptr %13, align 8
  %63 = load i32, ptr @hf_scsi_osd_collection_object_id, align 4
  %64 = call ptr @dissect_osd_collection_object_id(ptr noundef %60, i32 noundef %61, ptr noundef %62, i32 noundef %63)
  %65 = load i32, ptr %14, align 4
  %66 = add i32 %65, 8
  store i32 %66, ptr %14, align 4
  %67 = load i32, ptr %14, align 4
  %68 = add i32 %67, 20
  store i32 %68, ptr %14, align 4
  %69 = load ptr, ptr %12, align 8
  %70 = load ptr, ptr %11, align 8
  %71 = load i32, ptr %14, align 4
  %72 = load ptr, ptr %13, align 8
  %73 = load ptr, ptr %18, align 8
  %74 = call i32 @dissect_osd_attribute_parameters(ptr noundef %69, ptr noundef %70, i32 noundef %71, ptr noundef %72, ptr noundef %73)
  %75 = load i32, ptr %14, align 4
  %76 = add i32 %75, 28
  store i32 %76, ptr %14, align 4
  %77 = load ptr, ptr %11, align 8
  %78 = load i32, ptr %14, align 4
  %79 = load ptr, ptr %13, align 8
  call void @dissect_osd_capability(ptr noundef %77, i32 noundef %78, ptr noundef %79)
  %80 = load i32, ptr %14, align 4
  %81 = add i32 %80, 80
  store i32 %81, ptr %14, align 4
  %82 = load ptr, ptr %11, align 8
  %83 = load i32, ptr %14, align 4
  %84 = load ptr, ptr %13, align 8
  %85 = call i32 @dissect_osd_security_parameters(ptr noundef %82, i32 noundef %83, ptr noundef %84)
  %86 = load i32, ptr %14, align 4
  %87 = add i32 %86, 40
  store i32 %87, ptr %14, align 4
  br label %88

88:                                               ; preds = %28, %25, %10
  %89 = load i8, ptr %15, align 1, !range !9, !noundef !10
  %90 = trunc i8 %89 to i1
  br i1 %90, label %91, label %101

91:                                               ; preds = %88
  %92 = load i8, ptr %16, align 1, !range !9, !noundef !10
  %93 = trunc i8 %92 to i1
  br i1 %93, label %101, label %94

94:                                               ; preds = %91
  %95 = load ptr, ptr %12, align 8
  %96 = load ptr, ptr %11, align 8
  %97 = load i32, ptr %14, align 4
  %98 = load ptr, ptr %13, align 8
  %99 = load ptr, ptr %18, align 8
  %100 = load ptr, ptr %20, align 8
  call void @dissect_osd_attribute_data_out(ptr noundef %95, ptr noundef %96, i32 noundef %97, ptr noundef %98, ptr noundef %99, ptr noundef %100)
  br label %101

101:                                              ; preds = %94, %91, %88
  %102 = load i8, ptr %15, align 1, !range !9, !noundef !10
  %103 = trunc i8 %102 to i1
  br i1 %103, label %114, label %104

104:                                              ; preds = %101
  %105 = load i8, ptr %16, align 1, !range !9, !noundef !10
  %106 = trunc i8 %105 to i1
  br i1 %106, label %114, label %107

107:                                              ; preds = %104
  %108 = load ptr, ptr %12, align 8
  %109 = load ptr, ptr %11, align 8
  %110 = load i32, ptr %14, align 4
  %111 = load ptr, ptr %13, align 8
  %112 = load ptr, ptr %18, align 8
  %113 = load ptr, ptr %20, align 8
  call void @dissect_osd_attribute_data_in(ptr noundef %108, ptr noundef %109, i32 noundef %110, ptr noundef %111, ptr noundef %112, ptr noundef %113)
  br label %114

114:                                              ; preds = %107, %104, %101
  ret void
}