; Function Attrs: null_pointer_is_valid sspstrong uwtable
define internal void @dissect_osd_flush_collection(ptr noundef %0, ptr noundef %1, ptr noundef %2, i32 noundef %3, i1 noundef zeroext %4, i1 noundef zeroext %5, i32 %6, ptr noundef captures(address_is_null) %7, ptr readnone captures(none) %8, ptr noundef %9) #3 {
  %.not = xor i1 %4, true
  %brmerge.not = and i1 %4, %5
  br i1 %brmerge.not, label %11, label %55

11:                                               ; preds = %10
  %12 = load i32, ptr @hf_scsi_osd_flush_collection_scope, align 4
  %13 = tail call ptr @proto_tree_add_item(ptr noundef %2, i32 noundef %12, ptr noundef %0, i32 noundef %3, i32 noundef 1, i32 noundef 0)
  %14 = add i32 %3, 1
  %.not.i = icmp eq ptr %7, null
  br i1 %.not.i, label %dissect_osd_getsetattrib.exit, label %15

15:                                               ; preds = %11
  %16 = getelementptr inbounds nuw i8, ptr %7, i64 8
  %17 = load ptr, ptr %16, align 8
  %.not11.i = icmp eq ptr %17, null
  br i1 %.not11.i, label %dissect_osd_getsetattrib.exit, label %18

18:                                               ; preds = %15
  %19 = getelementptr inbounds nuw i8, ptr %17, i64 64
  %20 = load ptr, ptr %19, align 8
  %.not12.i = icmp eq ptr %20, null
  br i1 %.not12.i, label %dissect_osd_getsetattrib.exit, label %21

21:                                               ; preds = %18
  %22 = tail call zeroext i8 @tvb_get_uint8(ptr noundef %0, i32 noundef %14)
  %23 = lshr i8 %22, 4
  %24 = and i8 %23, 3
  %25 = getelementptr inbounds nuw i8, ptr %20, i64 2
  store i8 %24, ptr %25, align 2
  br label %dissect_osd_getsetattrib.exit

dissect_osd_getsetattrib.exit:                    ; preds = %11, %15, %18, %21
  %26 = load i32, ptr @hf_scsi_osd_getsetattrib, align 4
  %27 = tail call ptr @proto_tree_add_item(ptr noundef %2, i32 noundef %26, ptr noundef %0, i32 noundef %14, i32 noundef 1, i32 noundef 0)
  %28 = load i32, ptr @hf_scsi_osd_collection_fcr, align 4
  %29 = tail call ptr @proto_tree_add_item(ptr noundef %2, i32 noundef %28, ptr noundef %0, i32 noundef %14, i32 noundef 1, i32 noundef 0)
  %30 = add i32 %3, 2
  %31 = load i32, ptr @hf_scsi_osd_timestamps_control, align 4
  %32 = tail call ptr @proto_tree_add_item(ptr noundef %2, i32 noundef %31, ptr noundef %0, i32 noundef %30, i32 noundef 1, i32 noundef 0)
  %33 = add i32 %3, 6
  %34 = load i32, ptr @hf_scsi_osd_partition_id, align 4
  %35 = tail call fastcc ptr @dissect_osd_partition_id(ptr noundef %1, ptr noundef %0, i32 noundef %33, ptr noundef %2, i32 noundef %34, ptr noundef %9, i1 noundef zeroext false, i1 noundef zeroext false)
  %36 = add i32 %3, 14
  %37 = load i32, ptr @hf_scsi_osd_collection_object_id, align 4
  %38 = tail call ptr @proto_tree_add_item(ptr noundef %2, i32 noundef %37, ptr noundef %0, i32 noundef %36, i32 noundef 8, i32 noundef 0)
  %39 = add i32 %3, 42
  tail call fastcc void @dissect_osd_attribute_parameters(ptr noundef %1, ptr noundef %0, i32 noundef %39, ptr noundef %2, ptr noundef %7)
  %40 = add i32 %3, 70
  tail call fastcc void @dissect_osd_capability(ptr noundef %0, i32 noundef %40, ptr noundef %2)
  %41 = add i32 %3, 150
  %42 = load i32, ptr @ett_osd_security_parameters, align 4
  %43 = tail call ptr @proto_tree_add_subtree(ptr noundef %2, ptr noundef %0, i32 noundef %41, i32 noundef 40, i32 noundef %42, ptr noundef null, ptr noundef nonnull @.str.294)
  %44 = load i32, ptr @hf_scsi_osd_ricv, align 4
  %45 = tail call ptr @proto_tree_add_item(ptr noundef %43, i32 noundef %44, ptr noundef %0, i32 noundef %41, i32 noundef 20, i32 noundef 0)
  %46 = add i32 %3, 170
  %47 = load i32, ptr @hf_scsi_osd_request_nonce, align 4
  %48 = tail call ptr @proto_tree_add_item(ptr noundef %43, i32 noundef %47, ptr noundef %0, i32 noundef %46, i32 noundef 12, i32 noundef 0)
  %49 = add i32 %3, 182
  %50 = load i32, ptr @hf_scsi_osd_diicvo, align 4
  %51 = tail call ptr @proto_tree_add_item(ptr noundef %43, i32 noundef %50, ptr noundef %0, i32 noundef %49, i32 noundef 4, i32 noundef 0)
  %52 = add i32 %3, 186
  %53 = load i32, ptr @hf_scsi_osd_doicvo, align 4
  %54 = tail call ptr @proto_tree_add_item(ptr noundef %43, i32 noundef %53, ptr noundef %0, i32 noundef %52, i32 noundef 4, i32 noundef 0)
  br label %55

55:                                               ; preds = %10, %dissect_osd_getsetattrib.exit
  %brmerge61 = or i1 %5, %.not
  br i1 %brmerge61, label %57, label %56

56:                                               ; preds = %55
  tail call fastcc void @dissect_osd_attribute_data_out(ptr noundef %1, ptr noundef %0, ptr noundef %2, ptr noundef %7, ptr noundef %9)
  br label %57

57:                                               ; preds = %55, %56
  %.not.i63 = icmp eq ptr %7, null
  %58 = or i1 %5, %.not.i63
  %or.cond = or i1 %4, %58
  br i1 %or.cond, label %dissect_osd_attribute_data_in.exit, label %59

59:                                               ; preds = %57
  %60 = getelementptr inbounds nuw i8, ptr %7, i64 8
  %61 = load ptr, ptr %60, align 8
  %.not14.i = icmp eq ptr %61, null
  br i1 %.not14.i, label %dissect_osd_attribute_data_in.exit, label %62

62:                                               ; preds = %59
  %63 = getelementptr inbounds nuw i8, ptr %61, i64 64
  %64 = load ptr, ptr %63, align 8
  %.not15.i = icmp eq ptr %64, null
  br i1 %.not15.i, label %dissect_osd_attribute_data_in.exit, label %65

65:                                               ; preds = %62
  %66 = getelementptr inbounds nuw i8, ptr %64, i64 2
  %67 = load i8, ptr %66, align 2
  %cond.i = icmp eq i8 %67, 3
  br i1 %cond.i, label %68, label %dissect_osd_attribute_data_in.exit

68:                                               ; preds = %65
  %69 = getelementptr inbounds nuw i8, ptr %64, i64 12
  %70 = load i32, ptr %69, align 4
  %.not16.i = icmp eq i32 %70, 0
  br i1 %.not16.i, label %dissect_osd_attribute_data_in.exit, label %71

71:                                               ; preds = %68
  %72 = getelementptr inbounds nuw i8, ptr %64, i64 16
  %73 = load i32, ptr %72, align 4
  %74 = getelementptr inbounds nuw i8, ptr %64, i64 32
  %75 = load i8, ptr %74, align 4, !range !9, !noundef !10
  %76 = trunc nuw i8 %75 to i1
  tail call fastcc void @dissect_osd_attributes_list(ptr noundef %1, ptr noundef %0, i32 noundef %73, ptr noundef %2, ptr noundef %9, i1 noundef zeroext %76)
  br label %dissect_osd_attribute_data_in.exit

dissect_osd_attribute_data_in.exit:               ; preds = %71, %68, %65, %62, %59, %57
  ret void
}